; Function Attrs: mustprogress uwtable
define void @_ZNK10open_spiel11phantom_ttt15PhantomTTTState12ViewToStringB5cxx11Ei(ptr dead_on_unwind noalias nonnull writable sret(%"class.std::__cxx11::basic_string") align 8 %0, ptr nocapture noundef nonnull readonly align 8 dereferenceable(288) %1, i32 noundef %2) local_unnamed_addr #3 align 2 personality ptr @__gxx_personality_v0 {
  %4 = alloca %"class.absl::debian2::AlphaNum", align 8
  %5 = alloca %"class.std::__cxx11::basic_string", align 8
  %6 = alloca %"class.absl::debian2::AlphaNum", align 8
  %7 = icmp eq i32 %2, 0
  %.v = select i1 %7, i64 216, i64 252
  %8 = getelementptr inbounds nuw i8, ptr %1, i64 %.v
  tail call void @_ZNSt7__cxx1112basic_stringIcSt11char_traitsIcESaIcEEC1Ev(ptr noundef nonnull align 8 dereferenceable(32) %0) #22
  %9 = getelementptr inbounds nuw i8, ptr %4, i64 8
  %10 = getelementptr inbounds nuw i8, ptr %6, i64 8
  br label %.preheader

.preheader:                                       ; preds = %26, %3
  %indvars.iv19 = phi i64 [ 0, %3 ], [ %indvars.iv.next20, %26 ]
  %11 = mul nuw nsw i64 %indvars.iv19, 3
  br label %12

12:                                               ; preds = %.preheader, %21
  %indvars.iv = phi i64 [ 0, %.preheader ], [ %indvars.iv.next, %21 ]
  %13 = add nuw nsw i64 %indvars.iv, %11
  %14 = getelementptr inbounds [9 x i32], ptr %8, i64 0, i64 %13
  %15 = load i32, ptr %14, align 4
  invoke void @_ZN10open_spiel11tic_tac_toe13StateToStringB5cxx11ENS0_9CellStateE(ptr dead_on_unwind nonnull writable sret(%"class.std::__cxx11::basic_string") align 8 %5, i32 noundef %15)
          to label %16 unwind label %.loopexit

16:                                               ; preds = %12
  %17 = call noundef ptr @_ZNKSt7__cxx1112basic_stringIcSt11char_traitsIcESaIcEE4dataEv(ptr noundef nonnull align 8 dereferenceable(32) %5) #22
  %18 = call noundef i64 @_ZNKSt7__cxx1112basic_stringIcSt11char_traitsIcESaIcEE4sizeEv(ptr noundef nonnull align 8 dereferenceable(32) %5) #22
  store ptr %17, ptr %4, align 8
  %19 = icmp sgt i64 %18, -1
  br i1 %19, label %_ZN4absl7debian28AlphaNumC2ISaIcEEERKNSt7__cxx1112basic_stringIcSt11char_traitsIcET_EE.exit, label %20

20:                                               ; preds = %16
  call void @llvm.trap()
  unreachable

_ZN4absl7debian28AlphaNumC2ISaIcEEERKNSt7__cxx1112basic_stringIcSt11char_traitsIcET_EE.exit: ; preds = %16
  store i64 %18, ptr %9, align 8
  invoke void @_ZN4absl7debian29StrAppendEPNSt7__cxx1112basic_stringIcSt11char_traitsIcESaIcEEERKNS0_8AlphaNumE(ptr noundef nonnull %0, ptr noundef nonnull align 8 dereferenceable(48) %4)
          to label %21 unwind label %22

21:                                               ; preds = %_ZN4absl7debian28AlphaNumC2ISaIcEEERKNSt7__cxx1112basic_stringIcSt11char_traitsIcET_EE.exit
  call void @_ZNSt7__cxx1112basic_stringIcSt11char_traitsIcESaIcEED1Ev(ptr noundef nonnull align 8 dereferenceable(32) %5) #22
  %indvars.iv.next = add nuw nsw i64 %indvars.iv, 1
  %exitcond.not = icmp eq i64 %indvars.iv.next, 3
  br i1 %exitcond.not, label %24, label %12, !llvm.loop !16

.loopexit:                                        ; preds = %12
  %lpad.loopexit = landingpad { ptr, i32 }
          cleanup
  br label %28

.loopexit.split-lp:                               ; preds = %25
  %lpad.loopexit.split-lp = landingpad { ptr, i32 }
          cleanup
  br label %28

22:                                               ; preds = %_ZN4absl7debian28AlphaNumC2ISaIcEEERKNSt7__cxx1112basic_stringIcSt11char_traitsIcET_EE.exit
  %23 = landingpad { ptr, i32 }
          cleanup
  call void @_ZNSt7__cxx1112basic_stringIcSt11char_traitsIcESaIcEED1Ev(ptr noundef nonnull align 8 dereferenceable(32) %5) #22
  br label %28

24:                                               ; preds = %21
  %.not = icmp eq i64 %indvars.iv19, 2
  br i1 %.not, label %27, label %25

25:                                               ; preds = %24
  store ptr @.str.22, ptr %6, align 8
  store i64 1, ptr %10, align 8
  invoke void @_ZN4absl7debian29StrAppendEPNSt7__cxx1112basic_stringIcSt11char_traitsIcESaIcEEERKNS0_8AlphaNumE(ptr noundef nonnull %0, ptr noundef nonnull align 8 dereferenceable(48) %6)
          to label %26 unwind label %.loopexit.split-lp

26:                                               ; preds = %25
  %indvars.iv.next20 = add nuw nsw i64 %indvars.iv19, 1
  br label %.preheader

27:                                               ; preds = %24
  ret void

28:                                               ; preds = %.loopexit, %.loopexit.split-lp, %22
  %.pn = phi { ptr, i32 } [ %23, %22 ], [ %lpad.loopexit, %.loopexit ], [ %lpad.loopexit.split-lp, %.loopexit.split-lp ]
  call void @_ZNSt7__cxx1112basic_stringIcSt11char_traitsIcESaIcEED1Ev(ptr noundef nonnull align 8 dereferenceable(32) %0) #22
  resume { ptr, i32 } %.pn
}